target datalayout = "e-m:e-p270:32:32-p271:32:32-p272:64:64-i64:64-i128:128-f80:128-n8:16:32:64-S128"
target triple = "x86_64-pc-linux-gnu"

%struct.AVRational = type { i32, i32 }
%struct.AVAmbientViewingEnvironment = type { %struct.AVRational, %struct.AVRational, %struct.AVRational }
%struct.AVFrameSideData = type { i32, ptr, i64, ptr, ptr }

; Function Attrs: nounwind uwtable
define ptr @av_ambient_viewing_environment_alloc(ptr noundef %0) #0 {
  %2 = alloca ptr, align 8
  %3 = alloca ptr, align 8
  %4 = alloca ptr, align 8
  %5 = alloca i32, align 4
  store ptr %0, ptr %3, align 8, !tbaa !4
  call void @llvm.lifetime.start.p0(i64 8, ptr %4) #5
  %6 = call noalias ptr @av_mallocz(i64 noundef 24)
  store ptr %6, ptr %4, align 8, !tbaa !9
  %7 = load ptr, ptr %4, align 8, !tbaa !9
  %8 = icmp ne ptr %7, null
  br i1 %8, label %10, label %9

9:                                                ; preds = %1
  store ptr null, ptr %2, align 8
  store i32 1, ptr %5, align 4
  br label %18

10:                                               ; preds = %1
  %11 = load ptr, ptr %4, align 8, !tbaa !9
  call void @get_defaults(ptr noundef %11)
  %12 = load ptr, ptr %3, align 8, !tbaa !4
  %13 = icmp ne ptr %12, null
  br i1 %13, label %14, label %16

14:                                               ; preds = %10
  %15 = load ptr, ptr %3, align 8, !tbaa !4
  store i64 24, ptr %15, align 8, !tbaa !11
  br label %16

16:                                               ; preds = %14, %10
  %17 = load ptr, ptr %4, align 8, !tbaa !9
  store ptr %17, ptr %2, align 8
  store i32 1, ptr %5, align 4
  br label %18

18:                                               ; preds = %16, %9
  call void @llvm.lifetime.end.p0(i64 8, ptr %4) #5
  %19 = load ptr, ptr %2, align 8
  ret ptr %19
}

; Function Attrs: nocallback nofree nosync nounwind willreturn memory(argmem: readwrite)
declare void @llvm.lifetime.start.p0(i64 immarg, ptr captures(none)) #1

declare noalias ptr @av_mallocz(i64 noundef) #2

; Function Attrs: nounwind uwtable
define internal void @get_defaults(ptr noundef %0) #0 {
  %2 = alloca ptr, align 8
  %3 = alloca %struct.AVRational, align 4
  store ptr %0, ptr %2, align 8, !tbaa !9
  %4 = load ptr, ptr %2, align 8, !tbaa !9
  %5 = getelementptr inbounds nuw %struct.AVAmbientViewingEnvironment, ptr %4, i32 0, i32 0
  %6 = load ptr, ptr %2, align 8, !tbaa !9
  %7 = getelementptr inbounds nuw %struct.AVAmbientViewingEnvironment, ptr %6, i32 0, i32 1
  %8 = load ptr, ptr %2, align 8, !tbaa !9
  %9 = getelementptr inbounds nuw %struct.AVAmbientViewingEnvironment, ptr %8, i32 0, i32 2
  %10 = getelementptr inbounds nuw %struct.AVRational, ptr %3, i32 0, i32 0
  store i32 0, ptr %10, align 4, !tbaa !13
  %11 = getelementptr inbounds nuw %struct.AVRational, ptr %3, i32 0, i32 1
  store i32 1, ptr %11, align 4, !tbaa !16
  call void @llvm.memcpy.p0.p0.i64(ptr align 4 %9, ptr align 4 %3, i64 8, i1 false), !tbaa.struct !17
  call void @llvm.memcpy.p0.p0.i64(ptr align 4 %7, ptr align 4 %9, i64 8, i1 false), !tbaa.struct !17
  call void @llvm.memcpy.p0.p0.i64(ptr align 4 %5, ptr align 4 %7, i64 8, i1 false), !tbaa.struct !17
  ret void
}

; Function Attrs: nocallback nofree nosync nounwind willreturn memory(argmem: readwrite)
declare void @llvm.lifetime.end.p0(i64 immarg, ptr captures(none)) #1

; Function Attrs: nounwind uwtable
define ptr @av_ambient_viewing_environment_create_side_data(ptr noundef %0) #0 {
  %2 = alloca ptr, align 8
  %3 = alloca ptr, align 8
  %4 = alloca ptr, align 8
  %5 = alloca i32, align 4
  store ptr %0, ptr %3, align 8, !tbaa !19
  call void @llvm.lifetime.start.p0(i64 8, ptr %4) #5
  %6 = load ptr, ptr %3, align 8, !tbaa !19
  %7 = call ptr @av_frame_new_side_data(ptr noundef %6, i32 noundef 26, i64 noundef 24)
  store ptr %7, ptr %4, align 8, !tbaa !21
  %8 = load ptr, ptr %4, align 8, !tbaa !21
  %9 = icmp ne ptr %8, null
  br i1 %9, label %11, label %10

10:                                               ; preds = %1
  store ptr null, ptr %2, align 8
  store i32 1, ptr %5, align 4
  br label %24

11:                                               ; preds = %1
  %12 = load ptr, ptr %4, align 8, !tbaa !21
  %13 = getelementptr inbounds nuw %struct.AVFrameSideData, ptr %12, i32 0, i32 1
  %14 = load ptr, ptr %13, align 8, !tbaa !23
  %15 = load ptr, ptr %4, align 8, !tbaa !21
  %16 = getelementptr inbounds nuw %struct.AVFrameSideData, ptr %15, i32 0, i32 2
  %17 = load i64, ptr %16, align 8, !tbaa !28
  call void @llvm.memset.p0.i64(ptr align 1 %14, i8 0, i64 %17, i1 false)
  %18 = load ptr, ptr %4, align 8, !tbaa !21
  %19 = getelementptr inbounds nuw %struct.AVFrameSideData, ptr %18, i32 0, i32 1
  %20 = load ptr, ptr %19, align 8, !tbaa !23
  call void @get_defaults(ptr noundef %20)
  %21 = load ptr, ptr %4, align 8, !tbaa !21
  %22 = getelementptr inbounds nuw %struct.AVFrameSideData, ptr %21, i32 0, i32 1
  %23 = load ptr, ptr %22, align 8, !tbaa !23
  store ptr %23, ptr %2, align 8
  store i32 1, ptr %5, align 4
  br label %24

24:                                               ; preds = %11, %10
  call void @llvm.lifetime.end.p0(i64 8, ptr %4) #5
  %25 = load ptr, ptr %2, align 8
  ret ptr %25
}

declare ptr @av_frame_new_side_data(ptr noundef, i32 noundef, i64 noundef) #2

; Function Attrs: nocallback nofree nounwind willreturn memory(argmem: write)
declare void @llvm.memset.p0.i64(ptr writeonly captures(none), i8, i64, i1 immarg) #3

; Function Attrs: nocallback nofree nounwind willreturn memory(argmem: readwrite)
declare void @llvm.memcpy.p0.p0.i64(ptr noalias writeonly captures(none), ptr noalias readonly captures(none), i64, i1 immarg) #4


!llvm.module.flags = !{!0, !1, !2, !3}

!0 = !{i32 1, !"wchar_size", i32 4}
!1 = !{i32 8, !"PIC Level", i32 2}
!2 = !{i32 7, !"uwtable", i32 2}
!3 = !{i32 1, !"override-stack-alignment", i32 16}
!4 = !{!5, !5, i64 0}
!5 = !{!"p1 long", !6, i64 0}
!6 = !{!"any pointer", !7, i64 0}
!7 = !{!"omnipotent char", !8, i64 0}
!8 = !{!"Simple C/C++ TBAA"}
!9 = !{!10, !10, i64 0}
!10 = !{!"p1 _ZTS27AVAmbientViewingEnvironment", !6, i64 0}
!11 = !{!12, !12, i64 0}
!12 = !{!"long", !7, i64 0}
!13 = !{!14, !15, i64 0}
!14 = !{!"AVRational", !15, i64 0, !15, i64 4}
!15 = !{!"int", !7, i64 0}
!16 = !{!14, !15, i64 4}
!17 = !{i64 0, i64 4, !18, i64 4, i64 4, !18}
!18 = !{!15, !15, i64 0}
!19 = !{!20, !20, i64 0}
!20 = !{!"p1 _ZTS7AVFrame", !6, i64 0}
!21 = !{!22, !22, i64 0}
!22 = !{!"p1 _ZTS15AVFrameSideData", !6, i64 0}
!23 = !{!24, !25, i64 8}
!24 = !{!"AVFrameSideData", !15, i64 0, !25, i64 8, !12, i64 16, !26, i64 24, !27, i64 32}
!25 = !{!"p1 omnipotent char", !6, i64 0}
!26 = !{!"p1 _ZTS12AVDictionary", !6, i64 0}
!27 = !{!"p1 _ZTS11AVBufferRef", !6, i64 0}
!28 = !{!24, !12, i64 16}
